; Function Attrs: mustprogress nounwind uwtable
define dso_local ptr @__cxa_begin_catch(ptr %0) local_unnamed_addr #4 personality ptr @__gxx_personality_v0 {
  %.0.copyload.i.i = load i64, ptr %0, align 16
  %2 = invoke ptr @__cxa_get_globals()
          to label %3 unwind label %26

3:                                                ; preds = %1
  %4 = and i64 %.0.copyload.i.i, -256
  %5 = icmp eq i64 %4, 4849336966747728640
  %6 = getelementptr inbounds i8, ptr %0, i64 -96
  br i1 %5, label %7, label %20

7:                                                ; preds = %3
  %8 = getelementptr inbounds i8, ptr %0, i64 -40
  %9 = load i32, ptr %8, align 8, !tbaa !4
  %.p = tail call i32 @llvm.abs.i32(i32 %9, i1 false)
  %10 = add nuw i32 %.p, 1
  store i32 %10, ptr %8, align 8, !tbaa !4
  %11 = load ptr, ptr %2, align 8, !tbaa !15
  %.not23 = icmp eq ptr %6, %11
  br i1 %.not23, label %14, label %12

12:                                               ; preds = %7
  %13 = getelementptr inbounds i8, ptr %0, i64 -48
  store ptr %11, ptr %13, align 16, !tbaa !17
  store ptr %6, ptr %2, align 8, !tbaa !15
  br label %14

14:                                               ; preds = %12, %7
  %15 = getelementptr inbounds nuw i8, ptr %2, i64 8
  %16 = load i32, ptr %15, align 8, !tbaa !18
  %17 = add i32 %16, -1
  store i32 %17, ptr %15, align 8, !tbaa !18
  %18 = getelementptr inbounds i8, ptr %0, i64 -8
  %19 = load ptr, ptr %18, align 8, !tbaa !19
  br label %25

20:                                               ; preds = %3
  %21 = load ptr, ptr %2, align 8, !tbaa !15
  %.not = icmp eq ptr %21, null
  br i1 %.not, label %23, label %22

22:                                               ; preds = %20
  tail call void @_ZSt9terminatev() #16
  unreachable

23:                                               ; preds = %20
  store ptr %6, ptr %2, align 8, !tbaa !15
  %24 = getelementptr inbounds nuw i8, ptr %0, i64 32
  br label %25

25:                                               ; preds = %23, %14
  %.0 = phi ptr [ %19, %14 ], [ %24, %23 ]
  ret ptr %.0

26:                                               ; preds = %1
  %27 = landingpad { ptr, i32 }
          catch ptr null
  %28 = extractvalue { ptr, i32 } %27, 0
  tail call void @__clang_call_terminate(ptr %28) #16
  unreachable
}